Certificate:
    Data:
        Version: 3 (0x2)
        Serial Number:
            1c:33:35:7f:37:05:aa:aa:1a:ef:d2:d3:b6:38:c8:1e:1d:97:1a:4d
        Signature Algorithm: sha256WithRSAEncryption
        Issuer: C=US, ST=Washington, O=CA Dummy, CN=CA.Dummy.com/emailAddress=CA.Dummy@test.com
        Validity
            Not Before: Oct 23 02:32:11 2020 GMT
            Not After : Oct 23 02:32:11 2023 GMT
        Subject: C=US, ST=Washington, O=CA Dummy, CN=CA.Dummy.com/emailAddress=CA.Dummy@test.com
        Subject Public Key Info:
            Public Key Algorithm: rsaEncryption
                RSA Public-Key: (4096 bit)
                Modulus:
                    00:ac:1e:5d:37:23:82:90:5a:9e:a9:74:06:c8:e5:
                    9f:07:31:8d:3a:f2:1e:d4:eb:a4:65:92:89:a4:6f:
                    46:55:8d:cb:d9:0c:8d:a7:f7:e8:da:24:e2:30:02:
                    c2:6d:ba:6c:fb:b9:3a:42:bc:b5:af:cf:9c:97:36:
                    54:65:5d:05:38:ae:1a:3b:b8:68:28:8a:55:e4:e4:
                    cf:c6:00:c5:fc:48:0f:29:f9:4b:78:ee:d6:5d:c1:
                    b6:06:6e:be:ab:5c:50:64:2f:9d:f2:1c:b0:58:69:
                    cb:47:3e:e9:02:ed:9a:16:3c:43:ac:ed:95:b8:66:
                    3c:b1:d9:bb:67:7d:90:03:57:00:60:8b:a8:30:ec:
                    13:8f:ae:7f:bb:b8:82:e7:3a:d7:56:b8:c5:57:4e:
                    81:1c:a9:ed:0b:62:93:74:00:5a:96:b4:1d:b2:4c:
                    19:fa:4b:b5:f9:47:44:40:92:bf:10:1b:e3:c3:81:
                    8b:d0:e3:7d:b4:a8:43:bb:a7:77:53:31:64:c4:5c:
                    77:4c:87:f5:b3:9b:b7:75:6c:4f:27:51:3a:1f:f9:
                    08:b8:91:22:1e:f3:24:0a:c6:8a:e4:61:3e:55:0d:
                    87:48:cd:0f:66:ec:a7:a9:85:73:8f:8f:df:e8:18:
                    da:fa:ed:19:9e:2f:e9:7c:12:1d:7b:3f:1f:76:00:
                    ec:c0:43:67:c5:f6:23:e7:d6:8c:a9:cb:4e:a5:d7:
                    a1:00:dd:5c:66:0d:de:aa:01:e3:de:ca:6a:87:77:
                    3c:e3:ab:da:7d:85:26:a2:a4:cf:6f:bf:3a:68:45:
                    86:00:81:ca:42:cd:41:ec:6b:24:d4:c4:d7:0d:e7:
                    e9:14:b4:ae:39:b6:c5:fc:ab:c1:1f:c6:4f:f8:be:
                    6c:4b:ff:82:e0:cf:fc:55:80:71:c1:9d:98:b3:26:
                    f8:1e:60:c7:4e:a7:82:1e:06:0b:1b:3a:34:03:2c:
                    22:ba:b1:e7:2b:09:5d:8e:39:e6:bc:95:eb:c8:35:
                    72:d1:86:84:55:e4:63:1d:6a:79:9d:2b:65:e3:44:
                    00:bf:6e:fd:32:0c:ef:4f:14:b7:33:e2:76:1f:53:
                    aa:06:4f:bd:cb:7d:0f:0c:cd:a1:6c:12:95:52:14:
                    ae:da:1c:7f:02:f7:5d:d9:3a:26:b7:22:07:c2:17:
                    e7:8f:cd:11:42:49:08:15:78:d9:0f:be:21:96:8a:
                    44:d0:7d:cf:9c:5f:0c:08:19:45:66:f3:5c:a6:88:
                    13:22:d4:22:30:56:52:14:3e:27:d5:e4:fe:49:f8:
                    58:cf:2d:09:7b:03:ed:10:1a:e8:9c:4b:8b:c5:1d:
                    d3:2a:a9:17:ef:14:5c:f5:9d:88:2d:f3:ea:9c:d7:
                    7e:ab:43
                Exponent: 65537 (0x10001)
        X509v3 extensions:
            X509v3 Subject Key Identifier: 
                48:D5:DC:39:D0:96:F7:8E:4D:A4:00:AC:D7:79:22:3F:D6:43:47:97
            X509v3 Authority Key Identifier: 
                keyid:48:D5:DC:39:D0:96:F7:8E:4D:A4:00:AC:D7:79:22:3F:D6:43:47:97

            X509v3 Basic Constraints: critical
                CA:TRUE
            X509v3 Subject Alternative Name: 
                email:CA.Dummy@test.com
            X509v3 Issuer Alternative Name: 
                email:CA.Dummy@test.com
    Signature Algorithm: sha256WithRSAEncryption
         9e:a6:47:20:0d:41:3e:14:e8:42:8a:d4:c1:a1:f8:d5:c3:d0:
         15:3b:82:b8:12:13:bb:b1:31:14:99:f6:62:5b:9e:cb:4a:21:
         cd:f2:03:0c:db:17:ae:de:44:59:ea:99:e6:11:3a:c7:50:57:
         e1:84:12:d0:0a:af:68:0b:f8:31:31:ad:ba:72:a2:06:6b:cd:
         47:f6:59:80:2f:6e:09:67:d1:8a:61:f2:70:75:12:7c:b8:72:
         68:c1:3b:28:e6:bd:9c:52:e5:8b:8b:80:f0:d6:62:62:f0:f5:
         af:0c:32:ee:3a:ea:bc:7e:50:48:db:72:ea:fc:dd:e5:3e:60:
         3b:1a:b0:7e:77:98:72:68:af:18:4a:52:1a:49:54:12:ec:dd:
         0c:37:e1:93:e9:15:87:07:a2:24:7f:02:c0:45:3d:f6:43:7f:
         d2:9a:47:fa:4b:fc:3c:b9:8a:a8:02:37:21:c5:d9:66:62:99:
         64:39:bc:2e:8e:00:a4:f9:3e:be:31:84:52:01:88:2a:61:8f:
         8e:7f:f5:b7:77:2a:20:86:f6:9a:ba:ff:b1:83:40:83:75:4c:
         fa:64:7c:fd:81:f1:96:03:8c:26:04:32:91:14:a2:62:a3:e2:
         dc:08:0d:d1:a9:b5:b3:dc:38:d1:cc:68:bf:ac:73:ae:ab:86:
         ca:2e:98:c6:19:51:e6:ef:2d:80:0d:a2:d2:3f:c5:c3:01:fa:
         7d:50:9f:0c:6a:46:38:57:d6:52:a1:cf:1f:49:20:57:d9:b2:
         46:39:57:86:02:11:b3:e0:26:14:63:1d:2f:e7:c1:da:c0:49:
         38:0f:7f:e6:1c:29:ce:0c:37:01:ee:d6:84:60:b6:c4:5a:c7:
         b1:31:dd:9f:8e:31:41:47:78:c4:d1:af:12:96:54:9b:21:f4:
         d5:bf:bc:40:af:73:b9:d5:fa:c4:8f:27:02:4e:f2:d1:53:ba:
         63:32:42:fe:fb:8e:6b:64:55:c2:54:af:20:4e:95:1c:c0:2b:
         a0:62:09:9b:8d:f8:d2:7b:95:5c:a3:a8:59:95:99:ae:79:b2:
         6c:bf:00:72:c5:b3:3e:b1:28:18:db:d9:c6:2e:54:b6:8e:34:
         09:26:c1:f9:63:3e:ee:a5:19:6f:32:54:eb:48:ea:91:ca:f0:
         e7:66:19:1b:8c:51:9e:8b:54:1f:ae:79:24:a8:f6:92:26:b4:
         dd:ef:63:07:51:c5:52:e1:66:e2:aa:b4:70:49:4e:af:77:e9:
         81:46:74:90:fb:74:92:d7:d7:ae:80:7b:c3:3f:d1:f0:47:93:
         3c:9e:84:08:88:05:29:3f:aa:56:7e:e8:22:f9:fd:4f:ca:f3:
         97:ca:81:df:73:7c:03:19
-----BEGIN CERTIFICATE-----
MIIF+zCCA+OgAwIBAgIUHDM1fzcFqqoa79LTtjjIHh2XGk0wDQYJKoZIhvcNAQEL
BQAwbjELMAkGA1UEBhMCVVMxEzARBgNVBAgMCldhc2hpbmd0b24xETAPBgNVBAoM
CENBIER1bW15MRUwEwYDVQQDDAxDQS5EdW1teS5jb20xIDAeBgkqhkiG9w0BCQEW
EUNBLkR1bW15QHRlc3QuY29tMB4XDTIwMTAyMzAyMzIxMVoXDTIzMTAyMzAyMzIx
MVowbjELMAkGA1UEBhMCVVMxEzARBgNVBAgMCldhc2hpbmd0b24xETAPBgNVBAoM
CENBIER1bW15MRUwEwYDVQQDDAxDQS5EdW1teS5jb20xIDAeBgkqhkiG9w0BCQEW
EUNBLkR1bW15QHRlc3QuY29tMIICIjANBgkqhkiG9w0BAQEFAAOCAg8AMIICCgKC
AgEArB5dNyOCkFqeqXQGyOWfBzGNOvIe1OukZZKJpG9GVY3L2QyNp/fo2iTiMALC
bbps+7k6Qry1r8+clzZUZV0FOK4aO7hoKIpV5OTPxgDF/EgPKflLeO7WXcG2Bm6+
q1xQZC+d8hywWGnLRz7pAu2aFjxDrO2VuGY8sdm7Z32QA1cAYIuoMOwTj65/u7iC
5zrXVrjFV06BHKntC2KTdABalrQdskwZ+ku1+UdEQJK/EBvjw4GL0ON9tKhDu6d3
UzFkxFx3TIf1s5u3dWxPJ1E6H/kIuJEiHvMkCsaK5GE+VQ2HSM0PZuynqYVzj4/f
6Bja+u0Zni/pfBIdez8fdgDswENnxfYj59aMqctOpdehAN1cZg3eqgHj3spqh3c8
46vafYUmoqTPb786aEWGAIHKQs1B7Gsk1MTXDefpFLSuObbF/KvBH8ZP+L5sS/+C
4M/8VYBxwZ2Ysyb4HmDHTqeCHgYLGzo0AywiurHnKwldjjnmvJXryDVy0YaEVeRj
HWp5nStl40QAv279MgzvTxS3M+J2H1OqBk+9y30PDM2hbBKVUhSu2hx/Avdd2Tom
tyIHwhfnj80RQkkIFXjZD74hlopE0H3PnF8MCBlFZvNcpogTItQiMFZSFD4n1eT+
SfhYzy0JewPtEBronEuLxR3TKqkX7xRc9Z2ILfPqnNd+q0MCAwEAAaOBkDCBjTAd
BgNVHQ4EFgQUSNXcOdCW945NpACs13kiP9ZDR5cwHwYDVR0jBBgwFoAUSNXcOdCW
945NpACs13kiP9ZDR5cwDwYDVR0TAQH/BAUwAwEB/zAcBgNVHREEFTATgRFDQS5E
dW1teUB0ZXN0LmNvbTAcBgNVHRIEFTATgRFDQS5EdW1teUB0ZXN0LmNvbTANBgkq
hkiG9w0BAQsFAAOCAgEAnqZHIA1BPhToQorUwaH41cPQFTuCuBITu7ExFJn2Ylue
y0ohzfIDDNsXrt5EWeqZ5hE6x1BX4YQS0AqvaAv4MTGtunKiBmvNR/ZZgC9uCWfR
imHycHUSfLhyaME7KOa9nFLli4uA8NZiYvD1rwwy7jrqvH5QSNty6vzd5T5gOxqw
fneYcmivGEpSGklUEuzdDDfhk+kVhweiJH8CwEU99kN/0ppH+kv8PLmKqAI3IcXZ
ZmKZZDm8Lo4ApPk+vjGEUgGIKmGPjn/1t3cqIIb2mrr/sYNAg3VM+mR8/YHxlgOM
JgQykRSiYqPi3AgN0am1s9w40cxov6xzrquGyi6YxhlR5u8tgA2i0j/FwwH6fVCf
DGpGOFfWUqHPH0kgV9myRjlXhgIRs+AmFGMdL+fB2sBJOA9/5hwpzgw3Ae7WhGC2
xFrHsTHdn44xQUd4xNGvEpZUmyH01b+8QK9zudX6xI8nAk7y0VO6YzJC/vuOa2RV
wlSvIE6VHMAroGIJm4340nuVXKOoWZWZrnmybL8AcsWzPrEoGNvZxi5Uto40CSbB
+WM+7qUZbzJU60jqkcrw52YZG4xRnotUH655JKj2kia03e9jB1HFUuFm4qq0cElO
r3fpgUZ0kPt0ktfXroB7wz/R8EeTPJ6ECIgFKT+qVn7oIvn9T8rzl8qB33N8Axk=
-----END CERTIFICATE-----
