Certificate:
    Data:
        Version: 3 (0x2)
        Serial Number:
            1c:33:35:7f:37:05:aa:aa:1a:ef:d2:d3:b6:38:c8:1e:1d:97:1a:4e
        Signature Algorithm: sha256WithRSAEncryption
        Issuer: C=US, ST=Washington, O=CA Dummy, CN=CA.Dummy.com/emailAddress=CA.Dummy@test.com
        Validity
            Not Before: Oct 23 02:33:28 2020 GMT
            Not After : Oct 23 02:33:28 2021 GMT
        Subject: C=US, ST=Washington, L=Seattle, O=Aero, CN=Aero.com/emailAddress=Aero@test.com
        Subject Public Key Info:
            Public Key Algorithm: rsaEncryption
                RSA Public-Key: (4096 bit)
                Modulus:
                    00:9e:cd:1c:c6:1c:13:b7:4b:9a:c5:50:f8:d2:5e:
                    32:f8:05:f3:a7:c5:1f:99:d2:f8:76:63:43:6b:74:
                    23:8a:f1:04:98:84:12:87:f9:c4:9c:a9:3c:d8:30:
                    52:28:a1:e2:6c:1a:a3:09:f8:15:38:48:80:29:07:
                    a9:d1:36:87:05:fa:3d:39:08:a2:a9:c7:c0:a0:98:
                    8f:44:f9:85:46:ba:7c:ba:9a:91:62:47:2b:12:01:
                    ee:66:0d:d3:55:3b:d6:ee:87:f1:9d:51:81:c5:e4:
                    ba:10:e6:2b:e3:2e:fd:5b:3b:21:86:47:7f:a7:2a:
                    29:d7:3c:f9:d2:8a:95:a8:de:5e:90:9d:a8:44:47:
                    f5:fc:bb:84:15:54:7e:26:7e:3e:09:e1:42:50:cf:
                    c0:85:fd:18:3a:4f:90:80:7d:ca:e7:af:8c:f0:ee:
                    f8:16:ee:89:a4:bb:56:a2:69:e8:a7:8d:26:00:cd:
                    78:3d:81:1f:39:16:f7:aa:3a:eb:40:10:cd:3d:69:
                    49:70:f3:81:2f:71:55:8f:b8:8d:ad:f9:19:6c:de:
                    c1:20:bf:1a:73:d9:99:83:e8:af:bc:db:3b:1a:b9:
                    9b:c0:4d:58:3a:08:38:03:f1:26:c0:6b:15:b5:41:
                    28:7b:1a:9f:6b:75:89:24:5f:ba:84:46:00:d9:4e:
                    15:4f:ea:79:2a:e8:8f:e6:08:84:61:3e:7e:54:db:
                    6f:96:87:8a:27:b0:22:7f:5a:0b:e1:82:ee:43:3f:
                    d5:04:07:d3:79:f8:88:97:dd:e1:3f:b9:5e:11:5c:
                    69:8d:79:9e:f2:e7:49:40:6b:c6:23:86:15:82:6e:
                    c8:02:f9:99:61:ff:c6:ac:22:f2:f4:8d:b1:43:47:
                    5f:c7:5b:34:ce:28:4a:ea:d5:a5:73:9a:6d:5f:d1:
                    70:9a:24:92:56:bd:2b:5d:dc:fc:39:35:4e:e7:64:
                    1d:be:f2:23:d4:60:8e:a8:b0:55:5f:4a:18:7b:c3:
                    fe:1b:cc:dc:99:b1:3b:b1:b2:e4:33:1e:10:2f:bf:
                    69:99:69:28:58:d8:78:93:f1:ba:fb:a4:4e:e5:56:
                    ac:51:94:25:bb:bc:30:5e:53:28:e1:ea:87:58:78:
                    06:3f:78:5e:4b:16:dd:81:67:e7:51:0a:d9:31:0f:
                    67:b3:92:61:82:45:f3:89:08:d0:13:9c:ad:72:2c:
                    87:ee:d1:5f:77:55:9d:6d:7b:ac:71:c8:ce:67:18:
                    8e:5a:26:33:31:c0:d0:17:a1:9c:ea:d5:d0:1a:f0:
                    91:04:58:5c:c4:55:5d:c8:03:8b:a7:38:e0:10:e9:
                    b6:f2:ea:83:7d:cd:72:90:46:6b:a6:2c:da:e5:fa:
                    bc:94:79
                Exponent: 65537 (0x10001)
        X509v3 extensions:
            X509v3 Basic Constraints: 
                CA:FALSE
            X509v3 Key Usage: 
                Digital Signature, Non Repudiation, Key Encipherment
            Netscape Comment: 
                OpenSSL Generated Certificate
            X509v3 Subject Key Identifier: 
                30:78:8B:E8:0C:F8:95:E2:50:F9:2F:E3:08:05:F1:CA:C0:12:FC:F9
            X509v3 Authority Key Identifier: 
                keyid:48:D5:DC:39:D0:96:F7:8E:4D:A4:00:AC:D7:79:22:3F:D6:43:47:97

            X509v3 Subject Alternative Name: 
                email:Aero@test.com
            X509v3 Issuer Alternative Name: 
                email:CA.Dummy@test.com
    Signature Algorithm: sha256WithRSAEncryption
         20:e7:86:34:66:0d:2f:7d:3d:4a:bf:a0:ed:ff:4c:ec:bb:de:
         e5:d0:59:85:bd:7c:98:45:93:b8:21:02:64:cc:10:86:37:0b:
         b4:49:fd:19:94:a8:0e:15:c6:05:0b:07:00:33:c6:f3:31:91:
         c6:d4:f9:5f:99:15:10:da:b6:95:09:42:9c:9b:06:5d:03:24:
         c9:4c:7a:f3:fd:84:4f:5b:6c:39:2f:48:e6:29:07:a9:d2:0e:
         c1:bc:b4:62:63:3f:da:56:37:94:3e:6f:ca:79:d3:fc:58:03:
         9f:de:25:7b:dc:df:e7:32:69:eb:4f:2c:ce:d1:a6:b4:63:f5:
         17:48:f9:51:5d:9c:25:c3:9e:5d:c2:ca:60:c8:69:ba:b6:d7:
         e6:29:45:e6:34:59:4d:d7:59:ca:ee:5b:06:97:65:66:f5:13:
         1c:e4:78:b5:cf:15:28:d4:d3:16:ac:d0:f1:57:9e:2f:67:3c:
         96:60:b6:e6:27:2e:13:00:ae:5b:ce:2d:66:d9:8c:a7:a8:89:
         ea:80:18:22:ea:c3:53:b1:0a:a7:51:18:c0:13:66:68:79:54:
         d9:d0:37:b6:3d:1b:e4:ed:bf:d0:cb:80:c8:d4:85:ed:78:b0:
         bf:5e:b1:93:43:e3:6d:9c:0a:b2:61:08:14:de:db:50:98:01:
         99:c4:54:ef:1a:84:13:77:0a:bf:a6:b9:fe:8c:90:d0:ce:bb:
         a5:4a:7a:a0:3f:de:0e:79:5b:fe:5a:9b:20:77:69:91:74:d7:
         ec:63:a2:9e:bc:44:2d:79:eb:68:86:40:64:68:9f:72:57:5e:
         d3:ad:d1:71:0a:f1:45:e1:20:d0:99:dd:fa:b1:34:e0:75:33:
         ed:4a:ed:8c:fb:29:52:95:d2:1e:56:b0:10:38:22:4c:a3:3e:
         c0:07:e5:83:17:12:25:e1:3a:dd:2d:bc:bd:9a:9f:48:d3:a1:
         76:8e:6e:05:dd:fa:e0:6a:df:42:e4:ae:8d:27:81:e0:37:dd:
         07:2d:5a:cd:3d:af:08:3a:26:46:48:e7:0c:c2:cb:c5:66:94:
         26:b0:8c:16:c0:85:eb:94:53:22:2e:95:2a:f0:62:4b:21:7f:
         72:67:23:83:55:2c:5c:51:50:a9:9e:50:37:6b:5b:7f:04:4c:
         99:89:cf:3d:97:50:18:06:aa:f1:eb:55:ab:c6:f3:23:cc:ce:
         6a:a5:96:07:87:e1:d7:99:7d:dc:23:9f:01:9d:0b:d2:56:aa:
         9c:2d:4b:58:8e:cb:20:2e:a0:6a:aa:13:90:d5:9b:75:a4:67:
         64:99:d3:9e:68:07:da:e3:64:1c:07:4b:a9:58:2f:1f:65:5a:
         61:4d:ec:f3:67:5d:71:5e
-----BEGIN CERTIFICATE-----
MIIGMjCCBBqgAwIBAgIUHDM1fzcFqqoa79LTtjjIHh2XGk4wDQYJKoZIhvcNAQEL
BQAwbjELMAkGA1UEBhMCVVMxEzARBgNVBAgMCldhc2hpbmd0b24xETAPBgNVBAoM
CENBIER1bW15MRUwEwYDVQQDDAxDQS5EdW1teS5jb20xIDAeBgkqhkiG9w0BCQEW
EUNBLkR1bW15QHRlc3QuY29tMB4XDTIwMTAyMzAyMzMyOFoXDTIxMTAyMzAyMzMy
OFowdDELMAkGA1UEBhMCVVMxEzARBgNVBAgMCldhc2hpbmd0b24xEDAOBgNVBAcM
B1NlYXR0bGUxDTALBgNVBAoMBEFlcm8xETAPBgNVBAMMCEFlcm8uY29tMRwwGgYJ
KoZIhvcNAQkBFg1BZXJvQHRlc3QuY29tMIICIjANBgkqhkiG9w0BAQEFAAOCAg8A
MIICCgKCAgEAns0cxhwTt0uaxVD40l4y+AXzp8UfmdL4dmNDa3QjivEEmIQSh/nE
nKk82DBSKKHibBqjCfgVOEiAKQep0TaHBfo9OQiiqcfAoJiPRPmFRrp8upqRYkcr
EgHuZg3TVTvW7ofxnVGBxeS6EOYr4y79Wzshhkd/pyop1zz50oqVqN5ekJ2oREf1
/LuEFVR+Jn4+CeFCUM/Ahf0YOk+QgH3K56+M8O74Fu6JpLtWomnop40mAM14PYEf
ORb3qjrrQBDNPWlJcPOBL3FVj7iNrfkZbN7BIL8ac9mZg+ivvNs7GrmbwE1YOgg4
A/EmwGsVtUEoexqfa3WJJF+6hEYA2U4VT+p5KuiP5giEYT5+VNtvloeKJ7Aif1oL
4YLuQz/VBAfTefiIl93hP7leEVxpjXme8udJQGvGI4YVgm7IAvmZYf/GrCLy9I2x
Q0dfx1s0zihK6tWlc5ptX9FwmiSSVr0rXdz8OTVO52QdvvIj1GCOqLBVX0oYe8P+
G8zcmbE7sbLkMx4QL79pmWkoWNh4k/G6+6RO5VasUZQlu7wwXlMo4eqHWHgGP3he
SxbdgWfnUQrZMQ9ns5JhgkXziQjQE5ytciyH7tFfd1WdbXusccjOZxiOWiYzMcDQ
F6Gc6tXQGvCRBFhcxFVdyAOLpzjgEOm28uqDfc1ykEZrpiza5fq8lHkCAwEAAaOB
wTCBvjAJBgNVHRMEAjAAMAsGA1UdDwQEAwIF4DAsBglghkgBhvhCAQ0EHxYdT3Bl
blNTTCBHZW5lcmF0ZWQgQ2VydGlmaWNhdGUwHQYDVR0OBBYEFDB4i+gM+JXiUPkv
4wgF8crAEvz5MB8GA1UdIwQYMBaAFEjV3DnQlveOTaQArNd5Ij/WQ0eXMBgGA1Ud
EQQRMA+BDUFlcm9AdGVzdC5jb20wHAYDVR0SBBUwE4ERQ0EuRHVtbXlAdGVzdC5j
b20wDQYJKoZIhvcNAQELBQADggIBACDnhjRmDS99PUq/oO3/TOy73uXQWYW9fJhF
k7ghAmTMEIY3C7RJ/RmUqA4VxgULBwAzxvMxkcbU+V+ZFRDatpUJQpybBl0DJMlM
evP9hE9bbDkvSOYpB6nSDsG8tGJjP9pWN5Q+b8p50/xYA5/eJXvc3+cyaetPLM7R
prRj9RdI+VFdnCXDnl3CymDIabq21+YpReY0WU3XWcruWwaXZWb1ExzkeLXPFSjU
0xas0PFXni9nPJZgtuYnLhMArlvOLWbZjKeoieqAGCLqw1OxCqdRGMATZmh5VNnQ
N7Y9G+Ttv9DLgMjUhe14sL9esZND422cCrJhCBTe21CYAZnEVO8ahBN3Cr+muf6M
kNDOu6VKeqA/3g55W/5amyB3aZF01+xjop68RC1562iGQGRon3JXXtOt0XEK8UXh
INCZ3fqxNOB1M+1K7Yz7KVKV0h5WsBA4IkyjPsAH5YMXEiXhOt0tvL2an0jToXaO
bgXd+uBq30Lkro0ngeA33QctWs09rwg6JkZI5wzCy8VmlCawjBbAheuUUyIulSrw
Ykshf3JnI4NVLFxRUKmeUDdrW38ETJmJzz2XUBgGqvHrVavG8yPMzmqllgeH4deZ
fdwjnwGdC9JWqpwtS1iOyyAuoGqqE5DVm3WkZ2SZ055oB9rjZBwHS6lYLx9lWmFN
7PNnXXFe
-----END CERTIFICATE-----
